target datalayout = "e-m:e-p270:32:32-p271:32:32-p272:64:64-i64:64-i128:128-f80:128-n8:16:32:64-S128"
target triple = "x86_64-pc-linux-gnu"

%"struct.toku::wfg::node" = type <{ i64, %"class.toku::txnid_set", i8, [7 x i8] }>
%"class.toku::txnid_set" = type { %"class.toku::omt.0" }
%"class.toku::omt.0" = type { i8, i32, %union.anon.1 }
%union.anon.1 = type { %"struct.toku::omt<unsigned long>::omt_array" }
%"struct.toku::omt<unsigned long>::omt_array" = type { i32, i32, ptr }

; Function Attrs: mustprogress uwtable
define noundef ptr @_ZN4toku3wfg4node5allocEm(i64 noundef %0) #0 align 2 {
  %2 = alloca i64, align 8
  %3 = alloca ptr, align 8
  store i64 %0, ptr %2, align 8, !tbaa !27
  call void @llvm.lifetime.start.p0(i64 8, ptr %3) #10
  %4 = call noundef ptr @_Z12toku_xcallocmm(i64 noundef 1, i64 noundef 40)
  store ptr %4, ptr %3, align 8, !tbaa !13
  %5 = load i64, ptr %2, align 8, !tbaa !27
  %6 = load ptr, ptr %3, align 8, !tbaa !13
  %7 = getelementptr inbounds nuw %"struct.toku::wfg::node", ptr %6, i32 0, i32 0
  store i64 %5, ptr %7, align 8, !tbaa !29
  %8 = load ptr, ptr %3, align 8, !tbaa !13
  %9 = getelementptr inbounds nuw %"struct.toku::wfg::node", ptr %8, i32 0, i32 2
  store i8 0, ptr %9, align 8, !tbaa !36
  %10 = load ptr, ptr %3, align 8, !tbaa !13
  %11 = getelementptr inbounds nuw %"struct.toku::wfg::node", ptr %10, i32 0, i32 1
  call void @_ZN4toku9txnid_set6createEv(ptr noundef nonnull align 8 dereferenceable(24) %11)
  %12 = load ptr, ptr %3, align 8, !tbaa !13
  call void @llvm.lifetime.end.p0(i64 8, ptr %3) #10
  ret ptr %12
}