; Function Attrs: mustprogress uwtable
define noundef ptr @_ZN4toku3wfg4node5allocEm(i64 noundef %0) local_unnamed_addr #0 align 2 {
  %2 = tail call noundef ptr @_Z12toku_xcallocmm(i64 noundef 1, i64 noundef 40)
  store i64 %0, ptr %2, align 8, !tbaa !23
  %3 = getelementptr inbounds nuw i8, ptr %2, i64 32
  store i8 0, ptr %3, align 8, !tbaa !31
  %4 = getelementptr inbounds nuw i8, ptr %2, i64 8
  tail call void @_ZN4toku9txnid_set6createEv(ptr noundef nonnull align 8 dereferenceable(24) %4)
  ret ptr %2
}